(lp0
S'poi'
p1
aS'salary'
p2
aS'total_payments'
p3
aS'deferred_income'
p4
aS'exercised_stock_options'
p5
aS'restricted_stock'
p6
aS'expenses'
p7
aS'shared_receipt_with_poi'
p8
aS'from_messages'
p9
aS'other'
p10
aS'from_this_person_to_poi'
p11
aS'percent_to_poi'
p12
aS'percent_from_poi'
p13
a.