(lp0
S'poi'
p1
aS'exercised_stock_options'
p2
aS'from_this_person_to_poi'
p3
aS'from_poi_to_this_person'
p4
aS'total_stock_value'
p5
aS'expenses'
p6
aS'deferred_income'
p7
aS'percent_to_poi'
p8
aS'salary'
p9
a.