(lp0
S'poi'
p1
aS'salary'
p2
aS'exercised_stock_options'
p3
aS'bonus'
p4
aS'total_stock_value'
p5
aS'expenses'
p6
aS'from_this_person_to_poi'
p7
aS'from_poi_to_this_person'
p8
aS'other'
p9
aS'restricted_stock'
p10
a.