(lp0
S'poi'
p1
aS'bonus'
p2
aS'from_this_person_to_poi'
p3
aS'to_messages'
p4
aS'from_messages'
p5
aS'from_poi_to_this_person'
p6
aS'total_stock_value'
p7
aS'expenses'
p8
aS'loan_advances'
p9
aS'salary'
p10
a.